Certificate:
    Data:
        Version: 3 (0x2)
        Serial Number:
            96:8b:d9:31:39:1e:d8:64:4c:aa:90:3a:31:d1:77:bd
    Signature Algorithm: sha256WithRSAEncryption
        Issuer: CN=Easy-RSA CA
        Validity
            Not Before: Nov 14 10:36:40 2018 GMT
            Not After : Nov 11 10:36:40 2028 GMT
        Subject: CN=CLIENTNAME
        Subject Public Key Info:
            Public Key Algorithm: rsaEncryption
                Public-Key: (2048 bit)
                Modulus:
                    00:ae:39:8d:bf:a8:10:d8:da:fc:e2:40:16:be:d5:
                    2c:23:91:2c:20:56:a7:2d:cb:67:3d:c6:ab:19:a1:
                    e8:e1:5a:e2:b6:b4:01:fc:8f:ea:b4:f5:39:0f:6c:
                    96:85:0a:ec:7a:2e:c0:b0:18:67:e5:c6:ed:13:97:
                    2e:f6:f7:64:fb:a4:1f:85:91:34:86:05:d7:92:3c:
                    7d:71:51:93:d5:39:ac:fd:7b:8b:e2:45:89:f2:4e:
                    45:f4:1a:80:73:3e:91:49:ee:85:a9:9d:7d:91:2f:
                    47:23:34:e6:be:a2:5c:39:94:4f:1a:63:13:84:62:
                    ad:8b:7a:87:9a:70:d7:91:6b:e7:90:85:16:b7:80:
                    98:48:cd:5c:73:d9:99:16:94:9f:82:3a:6e:83:11:
                    fe:0f:e1:79:b4:f4:0a:e7:32:58:a1:91:5d:40:4e:
                    6f:22:fe:a8:46:40:08:c4:a2:8b:28:2f:18:ba:eb:
                    84:6d:70:12:0b:82:5f:96:23:f0:aa:b1:47:c6:8f:
                    28:73:5f:76:f3:aa:a3:b1:c5:d5:29:fa:92:be:f4:
                    13:23:8b:64:c7:96:00:82:a5:d6:27:61:a6:84:b4:
                    f2:51:5d:d1:a8:83:5f:f6:50:73:89:80:e1:26:29:
                    a1:4c:e2:cb:e4:f5:07:b0:87:d7:8e:7f:b2:8a:11:
                    6e:7d
                Exponent: 65537 (0x10001)
        X509v3 extensions:
            X509v3 Basic Constraints: 
                CA:FALSE
            X509v3 Subject Key Identifier: 
                9C:0B:D9:B2:34:26:14:0E:BC:4B:D7:71:32:91:53:3D:D1:C5:4B:37
            X509v3 Authority Key Identifier: 
                keyid:17:18:2A:A7:FA:D3:B2:47:74:67:8A:DD:ED:1A:E9:B4:46:47:50:88
                DirName:/CN=Easy-RSA CA
                serial:DC:9D:69:DC:01:C1:BB:03

            X509v3 Extended Key Usage: 
                TLS Web Client Authentication
            X509v3 Key Usage: 
                Digital Signature
    Signature Algorithm: sha256WithRSAEncryption
         6f:42:ad:8d:57:f0:8a:15:8c:83:9c:db:47:ac:c2:0d:e6:57:
         62:7c:0a:11:15:4c:91:fe:75:81:4a:1b:7b:8a:a8:40:60:03:
         e3:3c:bd:dd:96:b2:55:e0:43:fa:c9:dd:64:8c:10:f1:cb:9b:
         22:f3:0f:47:14:6d:76:7d:fd:c4:39:a9:b2:11:47:1a:d6:5f:
         49:23:5d:0c:3d:ea:ce:11:21:d0:5e:37:46:a0:97:3d:69:06:
         fa:f7:6e:83:c5:44:4f:57:44:1a:3b:bd:54:e6:6c:b9:8d:de:
         06:15:50:f2:03:7c:22:e2:66:b7:53:cb:3d:f8:53:da:fe:76:
         98:0d:8c:e5:e6:cb:57:29:f1:f4:04:c1:2d:58:9f:ce:b8:02:
         d9:eb:f1:91:bb:1e:1a:3d:0a:ed:12:1c:ae:67:9e:04:e0:4d:
         9a:93:d6:ae:64:70:d7:47:49:c3:8a:0e:b8:93:00:52:54:ca:
         f8:a0:2f:93:63:e9:5d:40:96:e4:fc:9d:29:93:0a:72:a7:67:
         b3:ea:20:da:00:c5:5e:a8:db:f7:8e:85:fa:e5:ec:27:1c:22:
         0a:71:2d:43:45:af:dd:76:d5:e0:82:4a:f8:53:66:ad:95:c9:
         83:bc:d4:b6:73:bb:c5:07:a5:bc:72:69:f0:d1:28:53:19:18:
         66:5e:72:b3
-----BEGIN CERTIFICATE-----
MIIDTjCCAjagAwIBAgIRAJaL2TE5HthkTKqQOjHRd70wDQYJKoZIhvcNAQELBQAw
FjEUMBIGA1UEAwwLRWFzeS1SU0EgQ0EwHhcNMTgxMTE0MTAzNjQwWhcNMjgxMTEx
MTAzNjQwWjAVMRMwEQYDVQQDDApDTElFTlROQU1FMIIBIjANBgkqhkiG9w0BAQEF
AAOCAQ8AMIIBCgKCAQEArjmNv6gQ2Nr84kAWvtUsI5EsIFanLctnPcarGaHo4Vri
trQB/I/qtPU5D2yWhQrsei7AsBhn5cbtE5cu9vdk+6QfhZE0hgXXkjx9cVGT1Tms
/XuL4kWJ8k5F9BqAcz6RSe6FqZ19kS9HIzTmvqJcOZRPGmMThGKti3qHmnDXkWvn
kIUWt4CYSM1cc9mZFpSfgjpugxH+D+F5tPQK5zJYoZFdQE5vIv6oRkAIxKKLKC8Y
uuuEbXASC4JfliPwqrFHxo8oc19286qjscXVKfqSvvQTI4tkx5YAgqXWJ2GmhLTy
UV3RqINf9lBziYDhJimhTOLL5PUHsIfXjn+yihFufQIDAQABo4GXMIGUMAkGA1Ud
EwQCMAAwHQYDVR0OBBYEFJwL2bI0JhQOvEvXcTKRUz3RxUs3MEYGA1UdIwQ/MD2A
FBcYKqf607JHdGeK3e0a6bRGR1CIoRqkGDAWMRQwEgYDVQQDDAtFYXN5LVJTQSBD
QYIJANydadwBwbsDMBMGA1UdJQQMMAoGCCsGAQUFBwMCMAsGA1UdDwQEAwIHgDAN
BgkqhkiG9w0BAQsFAAOCAQEAb0KtjVfwihWMg5zbR6zCDeZXYnwKERVMkf51gUob
e4qoQGAD4zy93ZayVeBD+sndZIwQ8cubIvMPRxRtdn39xDmpshFHGtZfSSNdDD3q
zhEh0F43RqCXPWkG+vdug8VET1dEGju9VOZsuY3eBhVQ8gN8IuJmt1PLPfhT2v52
mA2M5ebLVynx9ATBLVifzrgC2evxkbseGj0K7RIcrmeeBOBNmpPWrmRw10dJw4oO
uJMAUlTK+KAvk2PpXUCW5PydKZMKcqdns+og2gDFXqjb946F+uXsJxwiCnEtQ0Wv
3XbV4IJK+FNmrZXJg7zUtnO7xQelvHJp8NEoUxkYZl5ysw==
-----END CERTIFICATE-----
