Certificate:
    Data:
        Version: 3 (0x2)
        Serial Number:
            0f:dd:2e:56:73:82:a4:10:53:18:9d:02:f0:09:1d:d5
    Signature Algorithm: sha256WithRSAEncryption
        Issuer: CN=Easy-RSA CA
        Validity
            Not Before: Nov 14 10:36:21 2018 GMT
            Not After : Nov 11 10:36:21 2028 GMT
        Subject: CN=123.57.3.122
        Subject Public Key Info:
            Public Key Algorithm: rsaEncryption
                Public-Key: (2048 bit)
                Modulus:
                    00:c5:b7:42:2b:79:a2:b6:85:a7:33:81:4a:af:aa:
                    6b:c6:88:e2:48:77:8b:85:5d:a6:2d:8c:91:36:b8:
                    3a:65:e5:8a:64:01:4e:54:a1:19:58:00:09:19:76:
                    22:ca:4c:2d:7a:0a:49:54:68:bb:64:37:99:db:fb:
                    e5:d1:d4:14:90:47:9b:32:9a:c8:d1:da:eb:bf:3e:
                    25:94:b0:2a:1c:a4:df:7e:54:19:4e:4b:63:0a:18:
                    f9:54:ca:75:41:0d:9b:05:d5:0b:d1:4f:70:89:96:
                    1d:9f:b0:d2:8b:03:08:4d:2b:96:c9:18:9f:3e:aa:
                    98:3f:53:b0:f2:dd:9d:c7:08:5f:75:3b:7f:25:34:
                    5c:5c:3f:56:81:3d:bc:91:05:55:4f:a3:3b:e9:f8:
                    80:8d:6b:71:b8:44:4f:48:ba:2f:9d:28:6b:9f:47:
                    57:07:c5:79:1e:e7:dc:c1:fc:8b:56:ed:46:38:f0:
                    cb:a1:30:95:78:ff:92:59:71:03:3d:06:e5:fc:4f:
                    02:cd:d0:74:12:1c:59:7e:fb:d7:6c:ba:f7:21:ab:
                    1f:36:eb:6b:ef:af:da:58:8f:20:15:a6:1e:b1:12:
                    18:d3:a0:ea:fc:a0:4e:82:54:6a:8d:93:8b:7d:4f:
                    bc:ee:18:c0:c3:f8:09:6e:51:24:88:b7:d7:57:b8:
                    c6:dd
                Exponent: 65537 (0x10001)
        X509v3 extensions:
            X509v3 Basic Constraints: 
                CA:FALSE
            X509v3 Subject Key Identifier: 
                29:E7:1A:B9:29:63:BA:8C:E4:78:99:23:A7:E2:D2:17:2A:74:BA:24
            X509v3 Authority Key Identifier: 
                keyid:17:18:2A:A7:FA:D3:B2:47:74:67:8A:DD:ED:1A:E9:B4:46:47:50:88
                DirName:/CN=Easy-RSA CA
                serial:DC:9D:69:DC:01:C1:BB:03

            X509v3 Extended Key Usage: 
                TLS Web Server Authentication
            X509v3 Key Usage: 
                Digital Signature, Key Encipherment
            X509v3 Subject Alternative Name: 
                IP Address:123.57.3.122
    Signature Algorithm: sha256WithRSAEncryption
         79:73:09:61:70:db:52:4e:ca:f6:e3:51:2e:6b:cf:93:ae:5c:
         ed:3b:22:be:21:e8:35:94:e6:59:d2:1b:91:55:75:12:2e:f2:
         69:31:4c:a7:4f:a5:a7:0c:ee:9e:6d:70:8a:8d:00:ee:54:a5:
         06:f7:6c:ea:28:5b:86:b7:1c:88:35:ce:55:1b:2e:ae:51:64:
         02:04:9f:cd:48:8a:f1:7f:50:14:c7:a0:b4:b8:f6:e3:62:79:
         a3:22:e3:31:a8:ae:ac:bb:a1:9a:40:86:f4:de:bb:c7:7f:61:
         65:9e:e2:ec:de:c3:00:e4:35:71:a1:cf:31:18:ef:cd:ad:a8:
         9e:ce:3e:f2:00:bb:2b:8d:de:a5:84:f1:7d:3c:82:cc:35:f4:
         50:85:ef:94:2b:5c:6d:55:91:52:97:5e:66:38:0b:c5:98:a2:
         28:58:aa:2c:2c:38:28:2c:b7:a2:88:e4:2d:52:b0:1f:1a:6c:
         63:bb:a3:b5:4a:e1:68:b7:15:c0:ca:7b:8a:80:05:f2:8b:13:
         96:c1:d9:f9:da:31:80:b6:7e:1e:b1:04:35:5a:d3:fe:7a:c3:
         a0:0f:94:96:97:ab:48:2b:05:e4:2a:f1:ae:5e:51:f7:e6:1e:
         af:17:01:72:32:9b:ff:53:6b:5e:fe:16:94:37:f4:25:3c:f3:
         e7:fb:e1:2c
-----BEGIN CERTIFICATE-----
MIIDYDCCAkigAwIBAgIQD90uVnOCpBBTGJ0C8Akd1TANBgkqhkiG9w0BAQsFADAW
MRQwEgYDVQQDDAtFYXN5LVJTQSBDQTAeFw0xODExMTQxMDM2MjFaFw0yODExMTEx
MDM2MjFaMBcxFTATBgNVBAMMDDEyMy41Ny4zLjEyMjCCASIwDQYJKoZIhvcNAQEB
BQADggEPADCCAQoCggEBAMW3Qit5oraFpzOBSq+qa8aI4kh3i4Vdpi2MkTa4OmXl
imQBTlShGVgACRl2IspMLXoKSVRou2Q3mdv75dHUFJBHmzKayNHa678+JZSwKhyk
335UGU5LYwoY+VTKdUENmwXVC9FPcImWHZ+w0osDCE0rlskYnz6qmD9TsPLdnccI
X3U7fyU0XFw/VoE9vJEFVU+jO+n4gI1rcbhET0i6L50oa59HVwfFeR7n3MH8i1bt
Rjjwy6EwlXj/kllxAz0G5fxPAs3QdBIcWX7712y69yGrHzbra++v2liPIBWmHrES
GNOg6vygToJUao2Ti31PvO4YwMP4CW5RJIi311e4xt0CAwEAAaOBqDCBpTAJBgNV
HRMEAjAAMB0GA1UdDgQWBBQp5xq5KWO6jOR4mSOn4tIXKnS6JDBGBgNVHSMEPzA9
gBQXGCqn+tOyR3Rnit3tGum0RkdQiKEapBgwFjEUMBIGA1UEAwwLRWFzeS1SU0Eg
Q0GCCQDcnWncAcG7AzATBgNVHSUEDDAKBggrBgEFBQcDATALBgNVHQ8EBAMCBaAw
DwYDVR0RBAgwBocEezkDejANBgkqhkiG9w0BAQsFAAOCAQEAeXMJYXDbUk7K9uNR
LmvPk65c7TsiviHoNZTmWdIbkVV1Ei7yaTFMp0+lpwzunm1wio0A7lSlBvds6ihb
hrcciDXOVRsurlFkAgSfzUiK8X9QFMegtLj242J5oyLjMaiurLuhmkCG9N67x39h
ZZ7i7N7DAOQ1caHPMRjvza2ons4+8gC7K43epYTxfTyCzDX0UIXvlCtcbVWRUpde
ZjgLxZiiKFiqLCw4KCy3oojkLVKwHxpsY7ujtUrhaLcVwMp7ioAF8osTlsHZ+dox
gLZ+HrEENVrT/nrDoA+UlperSCsF5Crxrl5R9+YerxcBcjKb/1NrXv4WlDf0JTzz
5/vhLA==
-----END CERTIFICATE-----
